; Function Attrs: mustprogress uwtable
define hidden void @_ZN4cvc58internal6theory2bv5utils6mkZeroEj(ptr dead_on_unwind noalias writable sret(%"class.cvc5::internal::NodeTemplate.0") align 8 %0, i32 noundef %1) local_unnamed_addr #3 personality ptr @__gxx_personality_v0 {
  %3 = alloca %"class.cvc5::internal::BitVector", align 8
  call void @llvm.lifetime.start.p0(i64 24, ptr nonnull %3) #22, !noalias !41
  call void @_ZN4cvc58internal9BitVectorC2Ejj(ptr noundef nonnull align 8 dereferenceable(24) %3, i32 noundef %1, i32 noundef 0), !noalias !41
  %4 = invoke noundef ptr @_ZN4cvc58internal11NodeManager9currentNMEv()
          to label %5 unwind label %11, !noalias !41

5:                                                ; preds = %2
  invoke void @_ZN4cvc58internal11NodeManager7mkConstINS0_9BitVectorEEENS0_12NodeTemplateILb1EEERKT_(ptr dead_on_unwind writable sret(%"class.cvc5::internal::NodeTemplate.0") align 8 %0, ptr noundef nonnull align 8 dereferenceable(3560) %4, ptr noundef nonnull align 8 dereferenceable(24) %3)
          to label %6 unwind label %11

6:                                                ; preds = %5
  %7 = getelementptr inbounds nuw i8, ptr %3, i64 8
  invoke void @__gmpz_clear(ptr noundef nonnull align 8 dereferenceable(16) %7)
          to label %_ZN4cvc58internal6theory2bv5utils7mkConstEjj.exit unwind label %8

8:                                                ; preds = %6
  %9 = landingpad { ptr, i32 }
          catch ptr null
  %10 = extractvalue { ptr, i32 } %9, 0
  call void @__clang_call_terminate(ptr %10) #23
  unreachable

11:                                               ; preds = %5, %2
  %12 = landingpad { ptr, i32 }
          cleanup
  %13 = getelementptr inbounds nuw i8, ptr %3, i64 8
  invoke void @__gmpz_clear(ptr noundef nonnull align 8 dereferenceable(16) %13)
          to label %_ZN4cvc58internal9BitVectorD2Ev.exit3.i unwind label %14

14:                                               ; preds = %11
  %15 = landingpad { ptr, i32 }
          catch ptr null
  %16 = extractvalue { ptr, i32 } %15, 0
  call void @__clang_call_terminate(ptr %16) #23
  unreachable

_ZN4cvc58internal9BitVectorD2Ev.exit3.i:          ; preds = %11
  call void @llvm.lifetime.end.p0(i64 24, ptr nonnull %3) #22, !noalias !41
  resume { ptr, i32 } %12

_ZN4cvc58internal6theory2bv5utils7mkConstEjj.exit: ; preds = %6
  call void @llvm.lifetime.end.p0(i64 24, ptr nonnull %3) #22, !noalias !41
  ret void
}